(dp0
S'show_imports'
p1
I0
sS'prj_name'
p2
S'SAGA Python Language Binding'
p3
sS'docformat'
p4
S'epytext'
p5
sS'inheritance'
p6
S'grouped'
p7
sS'help'
p8
NsS'modules'
p9
(S'/home/paul/Saga/proj/language-bindings/pysaga/src/saga.py'
p10
S'/home/paul/Saga/proj/language-bindings/pysaga/src/sagaAttributes.py'
p11
S'/home/paul/Saga/proj/language-bindings/pysaga/src/sagaContext.py'
p12
S'/home/paul/Saga/proj/language-bindings/pysaga/src/sagaErrors.py'
p13
S'/home/paul/Saga/proj/language-bindings/pysaga/src/sagaFile.py'
p14
S'/home/paul/Saga/proj/language-bindings/pysaga/src/sagaIO.py'
p15
S'/home/paul/Saga/proj/language-bindings/pysaga/src/sagaJob.py'
p16
S'/home/paul/Saga/proj/language-bindings/pysaga/src/sagaMonitoring.py'
p17
S'/home/paul/Saga/proj/language-bindings/pysaga/src/sagaNamespace.py'
p18
S'/home/paul/Saga/proj/language-bindings/pysaga/src/sagaObject.py'
p19
S'/home/paul/Saga/proj/language-bindings/pysaga/src/sagaPermission.py'
p20
S'/home/paul/Saga/proj/language-bindings/pysaga/src/sagaReplica.py'
p21
S'/home/paul/Saga/proj/language-bindings/pysaga/src/sagaRPC.py'
p22
S'/home/paul/Saga/proj/language-bindings/pysaga/src/sagaSession.py'
p23
S'/home/paul/Saga/proj/language-bindings/pysaga/src/sagaTask.py'
p24
S'/home/paul/Saga/proj/language-bindings/pysaga/src/sagaURL.py'
p25
tp26
sS'private'
p27
I1
sS'prj_url'
p28
NsS'introspect_or_parse'
p29
S'both'
p30
sS'frames'
p31
I1
sS'css'
p32
S'default'
p33
sS'target'
p34
S'/home/paul/Saga/Epydoc/html'
p35
s.